target datalayout = "e-m:e-p270:32:32-p271:32:32-p272:64:64-i64:64-i128:128-f80:128-n8:16:32:64-S128"
target triple = "x86_64-pc-linux-gnu"

; Function Attrs: mustprogress uwtable
define ptr @proj_create_argv(ptr noundef %0, i32 noundef %1, ptr noundef %2) #0 {
  %4 = alloca ptr, align 8
  %5 = alloca ptr, align 8
  %6 = alloca i32, align 4
  %7 = alloca ptr, align 8
  %8 = alloca ptr, align 8
  %9 = alloca i32, align 4
  %10 = alloca ptr, align 8
  store ptr %0, ptr %5, align 8, !tbaa !3
  store i32 %1, ptr %6, align 4, !tbaa !17
  store ptr %2, ptr %7, align 8, !tbaa !12
  %11 = load ptr, ptr %5, align 8, !tbaa !3
  %12 = icmp eq ptr null, %11
  br i1 %12, label %13, label %15

13:                                               ; preds = %3
  %14 = call noundef ptr @_Z18pj_get_default_ctxv()
  store ptr %14, ptr %5, align 8, !tbaa !3
  br label %15

15:                                               ; preds = %13, %3
  %16 = load ptr, ptr %7, align 8, !tbaa !12
  %17 = icmp eq ptr null, %16
  br i1 %17, label %18, label %20

18:                                               ; preds = %15
  %19 = load ptr, ptr %5, align 8, !tbaa !3
  call void @_Z22proj_context_errno_setP6pj_ctxi(ptr noundef %19, i32 noundef 1026)
  store ptr null, ptr %4, align 8
  br label %36

20:                                               ; preds = %15
  call void @llvm.lifetime.start.p0(i64 8, ptr %8) #15
  %21 = load i32, ptr %6, align 4, !tbaa !17
  %22 = sext i32 %21 to i64
  %23 = load ptr, ptr %7, align 8, !tbaa !12
  %24 = call noundef ptr @_Z12pj_make_argsmPPc(i64 noundef %22, ptr noundef %23)
  store ptr %24, ptr %8, align 8, !tbaa !8
  %25 = load ptr, ptr %8, align 8, !tbaa !8
  %26 = icmp eq ptr null, %25
  br i1 %26, label %27, label %29

27:                                               ; preds = %20
  %28 = load ptr, ptr %5, align 8, !tbaa !3
  call void @_Z22proj_context_errno_setP6pj_ctxi(ptr noundef %28, i32 noundef 1024)
  store ptr null, ptr %4, align 8
  store i32 1, ptr %9, align 4
  br label %35

29:                                               ; preds = %20
  call void @llvm.lifetime.start.p0(i64 8, ptr %10) #15
  %30 = load ptr, ptr %5, align 8, !tbaa !3
  %31 = load ptr, ptr %8, align 8, !tbaa !8
  %32 = call ptr @proj_create(ptr noundef %30, ptr noundef %31)
  store ptr %32, ptr %10, align 8, !tbaa !15
  %33 = load ptr, ptr %8, align 8, !tbaa !8
  call void @free(ptr noundef %33) #15
  %34 = load ptr, ptr %10, align 8, !tbaa !15
  store ptr %34, ptr %4, align 8
  store i32 1, ptr %9, align 4
  call void @llvm.lifetime.end.p0(i64 8, ptr %10) #15
  br label %35

35:                                               ; preds = %29, %27
  call void @llvm.lifetime.end.p0(i64 8, ptr %8) #15
  br label %36

36:                                               ; preds = %35, %18
  %37 = load ptr, ptr %4, align 8
  ret ptr %37
}